; Function Attrs: mustprogress nounwind uwtable
define hidden noundef ptr @_ZN12HotSpotJVMCI7resolveE16JVMCIObjectArray(ptr %0, i8 %1) local_unnamed_addr #0 align 2 {
  %.not.i = icmp eq ptr %0, null
  br i1 %.not.i, label %_ZN10JNIHandles7resolveEP8_jobject.exit, label %3

3:                                                ; preds = %2
  %4 = ptrtoint ptr %0 to i64
  %5 = and i64 %4, 3
  switch i64 %5, label %14 [
    i64 1, label %6
    i64 2, label %10
  ]

6:                                                ; preds = %3
  %7 = getelementptr inbounds i8, ptr %0, i64 -1
  %8 = load ptr, ptr @_ZN14AccessInternal15RuntimeDispatchILm598084EP7oopDescLNS_11BarrierTypeE2EE10_load_funcE, align 8
  %9 = tail call noundef ptr %8(ptr noundef nonnull %7) #13
  br label %_ZN10JNIHandles7resolveEP8_jobject.exit

10:                                               ; preds = %3
  %11 = getelementptr inbounds i8, ptr %0, i64 -2
  %12 = load ptr, ptr @_ZN14AccessInternal15RuntimeDispatchILm548932EP7oopDescLNS_11BarrierTypeE2EE10_load_funcE, align 8
  %13 = tail call noundef ptr %12(ptr noundef nonnull %11) #13
  br label %_ZN10JNIHandles7resolveEP8_jobject.exit

14:                                               ; preds = %3
  %15 = load ptr, ptr %0, align 8
  br label %_ZN10JNIHandles7resolveEP8_jobject.exit

_ZN10JNIHandles7resolveEP8_jobject.exit:          ; preds = %2, %6, %10, %14
  %.0.i = phi ptr [ null, %2 ], [ %9, %6 ], [ %13, %10 ], [ %15, %14 ]
  ret ptr %.0.i
}